; Function Attrs: nounwind uwtable
define internal zeroext i1 @DISKAUDIO_PlayDevice(ptr noundef readonly captures(none) %0, ptr noundef %1, i32 noundef %2) #1 {
  %4 = getelementptr inbounds nuw i8, ptr %0, i64 200
  %5 = load ptr, ptr %4, align 8
  %6 = load ptr, ptr %5, align 8
  %7 = sext i32 %2 to i64
  %8 = tail call i64 @SDL_WriteIO_REAL(ptr noundef %6, ptr noundef %1, i64 noundef %7) #7
  %9 = trunc i64 %8 to i32
  %.not = icmp eq i32 %2, %9
  ret i1 %.not
}